; Function Attrs: mustprogress uwtable
define internal void @_ZN12_GLOBAL__N_134grpc_ssl_server_security_connector10check_peerE8tsi_peerP13grpc_endpointRKN9grpc_core11ChannelArgsEPNS4_13RefCountedPtrI17grpc_auth_contextEEP12grpc_closure(ptr nocapture nonnull readnone align 8 %this, ptr %peer.coerce0, i64 %peer.coerce1, ptr nocapture readnone %0, ptr nocapture nonnull readnone align 8 %1, ptr nocapture noundef %auth_context, ptr noundef %on_peer_checked) unnamed_addr #3 align 2 personality ptr @__gxx_personality_v0 {
entry:
  %peer = alloca %struct.tsi_peer, align 8
  %error = alloca %"class.absl::lts_20230802::Status", align 8
  %ref.tmp = alloca %"class.grpc_core::DebugLocation", align 1
  %agg.tmp = alloca %"class.absl::lts_20230802::Status", align 8
  store ptr %peer.coerce0, ptr %peer, align 8
  %2 = getelementptr inbounds i8, ptr %peer, i64 8
  store i64 %peer.coerce1, ptr %2, align 8
  call fastcc void @_ZN12_GLOBAL__N_114ssl_check_peerEPKcPK8tsi_peerPN9grpc_core13RefCountedPtrI17grpc_auth_contextEE(ptr noalias nonnull align 8 %error, ptr noundef null, ptr noundef nonnull %peer, ptr noundef %auth_context)
  invoke void @_Z17tsi_peer_destructP8tsi_peer(ptr noundef nonnull %peer)
          to label %invoke.cont unwind label %lpad

invoke.cont:                                      ; preds = %entry
  %3 = load i64, ptr %error, align 8
  store i64 %3, ptr %agg.tmp, align 8
  %and.i.i.i = and i64 %3, 1
  %cmp.i.i.i = icmp eq i64 %and.i.i.i, 0
  br i1 %cmp.i.i.i, label %invoke.cont4, label %if.then.i.i

if.then.i.i:                                      ; preds = %invoke.cont
  %sub.i.i.i = add nsw i64 %3, -1
  %4 = inttoptr i64 %sub.i.i.i to ptr
  %5 = atomicrmw add ptr %4, i32 1 monotonic, align 4
  br label %invoke.cont4

invoke.cont4:                                     ; preds = %if.then.i.i, %invoke.cont
  invoke void @_ZN9grpc_core7ExecCtx3RunERKNS_13DebugLocationEP12grpc_closureN4absl12lts_202308026StatusE(ptr noundef nonnull align 1 dereferenceable(1) %ref.tmp, ptr noundef %on_peer_checked, ptr noundef nonnull %agg.tmp)
          to label %invoke.cont6 unwind label %lpad5

invoke.cont6:                                     ; preds = %invoke.cont4
  %6 = load i64, ptr %agg.tmp, align 8
  %and.i.i.i2 = and i64 %6, 1
  %cmp.i.i.i3 = icmp eq i64 %and.i.i.i2, 0
  br i1 %cmp.i.i.i3, label %_ZN4absl12lts_202308026StatusD2Ev.exit, label %if.then.i.i4

if.then.i.i4:                                     ; preds = %invoke.cont6
  invoke void @_ZN4absl12lts_202308026Status15UnrefNonInlinedEm(i64 noundef %6)
          to label %_ZN4absl12lts_202308026StatusD2Ev.exit unwind label %terminate.lpad.i

terminate.lpad.i:                                 ; preds = %if.then.i.i4
  %7 = landingpad { ptr, i32 }
          catch ptr null
  %8 = extractvalue { ptr, i32 } %7, 0
  call void @__clang_call_terminate(ptr %8) #20
  unreachable

_ZN4absl12lts_202308026StatusD2Ev.exit:           ; preds = %invoke.cont6, %if.then.i.i4
  %9 = load i64, ptr %error, align 8
  %and.i.i.i5 = and i64 %9, 1
  %cmp.i.i.i6 = icmp eq i64 %and.i.i.i5, 0
  br i1 %cmp.i.i.i6, label %_ZN4absl12lts_202308026StatusD2Ev.exit9, label %if.then.i.i7

if.then.i.i7:                                     ; preds = %_ZN4absl12lts_202308026StatusD2Ev.exit
  invoke void @_ZN4absl12lts_202308026Status15UnrefNonInlinedEm(i64 noundef %9)
          to label %_ZN4absl12lts_202308026StatusD2Ev.exit9 unwind label %terminate.lpad.i8

terminate.lpad.i8:                                ; preds = %if.then.i.i7
  %10 = landingpad { ptr, i32 }
          catch ptr null
  %11 = extractvalue { ptr, i32 } %10, 0
  call void @__clang_call_terminate(ptr %11) #20
  unreachable

_ZN4absl12lts_202308026StatusD2Ev.exit9:          ; preds = %_ZN4absl12lts_202308026StatusD2Ev.exit, %if.then.i.i7
  ret void

lpad:                                             ; preds = %entry
  %12 = landingpad { ptr, i32 }
          cleanup
  br label %ehcleanup

lpad5:                                            ; preds = %invoke.cont4
  %13 = landingpad { ptr, i32 }
          cleanup
  call void @_ZN4absl12lts_202308026StatusD2Ev(ptr noundef nonnull align 8 dereferenceable(8) %agg.tmp) #17
  br label %ehcleanup

ehcleanup:                                        ; preds = %lpad5, %lpad
  %.pn = phi { ptr, i32 } [ %13, %lpad5 ], [ %12, %lpad ]
  call void @_ZN4absl12lts_202308026StatusD2Ev(ptr noundef nonnull align 8 dereferenceable(8) %error) #17
  resume { ptr, i32 } %.pn
}